; Function Attrs: mustprogress uwtable
define hidden noundef zeroext i1 @_ZN3sls7bv_eval15try_repair_bandERKNS_5bvectERNS_12bv_valuationERKS4_(ptr noundef nonnull align 8 dereferenceable(865) %0, ptr noundef nonnull readonly align 8 captures(none) dereferenceable(20) %1, ptr noundef nonnull align 8 dereferenceable(184) %2, ptr noundef nonnull readonly align 8 captures(none) dereferenceable(184) %3) local_unnamed_addr #3 align 2 {
  %5 = getelementptr inbounds nuw i8, ptr %2, i64 156
  %6 = load i32, ptr %5, align 4, !tbaa !131
  %.not = icmp eq i32 %6, 0
  br i1 %.not, label %._crit_edge, label %.lr.ph

.lr.ph:                                           ; preds = %4
  %7 = getelementptr inbounds nuw i8, ptr %2, i64 72
  %8 = getelementptr inbounds nuw i8, ptr %0, i64 504
  %9 = getelementptr inbounds nuw i8, ptr %0, i64 552
  br label %18

._crit_edge:                                      ; preds = %18, %4
  %10 = getelementptr inbounds nuw i8, ptr %0, i64 504
  %11 = load i32, ptr %10, align 8, !tbaa !91
  %12 = mul i32 %11, 214013
  %13 = add i32 %12, 2531011
  store i32 %13, ptr %10, align 8, !tbaa !91
  %14 = and i32 %13, 65536
  %15 = icmp eq i32 %14, 0
  %16 = getelementptr inbounds nuw i8, ptr %0, i64 552
  %17 = tail call noundef zeroext i1 @_ZN3sls12bv_valuation10set_repairEbRNS_5bvectE(ptr noundef nonnull align 8 dereferenceable(184) %2, i1 noundef zeroext %15, ptr noundef nonnull align 8 dereferenceable(20) %16)
  ret i1 %17

18:                                               ; preds = %.lr.ph, %18
  %indvars.iv = phi i64 [ 0, %.lr.ph ], [ %indvars.iv.next, %18 ]
  %19 = load ptr, ptr %7, align 8, !tbaa !97
  %20 = getelementptr inbounds nuw i32, ptr %19, i64 %indvars.iv
  %21 = load i32, ptr %20, align 4, !tbaa !102
  %22 = xor i32 %21, -1
  %23 = load ptr, ptr %1, align 8, !tbaa !97
  %24 = getelementptr inbounds nuw i32, ptr %23, i64 %indvars.iv
  %25 = load i32, ptr %24, align 4, !tbaa !102
  %26 = load ptr, ptr %3, align 8, !tbaa !97
  %27 = getelementptr inbounds nuw i32, ptr %26, i64 %indvars.iv
  %28 = load i32, ptr %27, align 4, !tbaa !102
  %29 = xor i32 %28, -1
  %30 = tail call noundef i32 @_ZN3sls12bv_valuation11random_bitsER10random_gen(ptr noundef nonnull align 4 dereferenceable(4) %8)
  %31 = and i32 %30, %29
  %32 = or i32 %31, %25
  %33 = and i32 %32, %22
  %34 = load ptr, ptr %9, align 8, !tbaa !97
  %35 = getelementptr inbounds nuw i32, ptr %34, i64 %indvars.iv
  store i32 %33, ptr %35, align 4, !tbaa !102
  %indvars.iv.next = add nuw nsw i64 %indvars.iv, 1
  %36 = load i32, ptr %5, align 4, !tbaa !131
  %37 = zext i32 %36 to i64
  %38 = icmp samesign ult i64 %indvars.iv.next, %37
  br i1 %38, label %18, label %._crit_edge, !llvm.loop !225
}